target datalayout = "e-m:e-p270:32:32-p271:32:32-p272:64:64-i64:64-i128:128-f80:128-n8:16:32:64-S128"
target triple = "x86_64-pc-linux-gnu"

%"class.llvm::GlobalValue" = type { %"class.llvm::Constant", ptr, i32, i32, ptr }
%"class.llvm::Constant" = type { %"class.llvm::User" }
%"class.llvm::User" = type { %"class.llvm::Value" }
%"class.llvm::Value" = type { i8, i8, i16, i32, ptr, ptr }
%"class.llvm::GlobalObject" = type { %"class.llvm::GlobalValue", ptr }

; Function Attrs: mustprogress nounwind uwtable
define dso_local void @_ZN4llvm12GlobalObject9setComdatEPNS_6ComdatE(ptr noundef nonnull align 8 dereferenceable(56) %0, ptr noundef %1) #0 align 2 {
  %3 = alloca ptr, align 8
  %4 = alloca ptr, align 8
  store ptr %0, ptr %3, align 8
  store ptr %1, ptr %4, align 8
  %5 = load ptr, ptr %3, align 8
  %6 = getelementptr inbounds nuw %"class.llvm::GlobalObject", ptr %5, i32 0, i32 1
  %7 = load ptr, ptr %6, align 8
  %8 = icmp ne ptr %7, null
  br i1 %8, label %9, label %12

9:                                                ; preds = %2
  %10 = getelementptr inbounds nuw %"class.llvm::GlobalObject", ptr %5, i32 0, i32 1
  %11 = load ptr, ptr %10, align 8
  call void @_ZN4llvm6Comdat10removeUserEPNS_12GlobalObjectE(ptr noundef nonnull align 8 dereferenceable(64) %11, ptr noundef %5)
  br label %12

12:                                               ; preds = %9, %2
  %13 = load ptr, ptr %4, align 8
  %14 = getelementptr inbounds nuw %"class.llvm::GlobalObject", ptr %5, i32 0, i32 1
  store ptr %13, ptr %14, align 8
  %15 = load ptr, ptr %4, align 8
  %16 = icmp ne ptr %15, null
  br i1 %16, label %17, label %19

17:                                               ; preds = %12
  %18 = load ptr, ptr %4, align 8
  call void @_ZN4llvm6Comdat7addUserEPNS_12GlobalObjectE(ptr noundef nonnull align 8 dereferenceable(64) %18, ptr noundef %5)
  br label %19

19:                                               ; preds = %17, %12
  ret void
}