; Function Attrs: mustprogress nounwind uwtable
define dso_local void @_ZN4llvm12GlobalObject9setComdatEPNS_6ComdatE(ptr noundef nonnull align 8 dereferenceable(56) %0, ptr noundef %1) local_unnamed_addr #1 align 2 {
  %3 = getelementptr inbounds nuw i8, ptr %0, i64 48
  %4 = load ptr, ptr %3, align 8
  %.not = icmp eq ptr %4, null
  br i1 %.not, label %6, label %5

5:                                                ; preds = %2
  tail call void @_ZN4llvm6Comdat10removeUserEPNS_12GlobalObjectE(ptr noundef nonnull align 8 dereferenceable(64) %4, ptr noundef nonnull %0) #12
  br label %6

6:                                                ; preds = %5, %2
  store ptr %1, ptr %3, align 8
  %.not5 = icmp eq ptr %1, null
  br i1 %.not5, label %8, label %7

7:                                                ; preds = %6
  tail call void @_ZN4llvm6Comdat7addUserEPNS_12GlobalObjectE(ptr noundef nonnull align 8 dereferenceable(64) %1, ptr noundef nonnull %0) #12
  br label %8

8:                                                ; preds = %7, %6
  ret void
}